target datalayout = "e-m:e-p270:32:32-p271:32:32-p272:64:64-i64:64-i128:128-f80:128-n8:16:32:64-S128"
target triple = "x86_64-pc-linux-gnu"

%struct.Py_complex = type { double, double }

; Function Attrs: nounwind uwtable
define dso_local { double, double } @_Py_c_quot(double %0, double %1, double %2, double %3) #0 {
  %5 = alloca %struct.Py_complex, align 8
  %6 = alloca %struct.Py_complex, align 8
  %7 = alloca %struct.Py_complex, align 8
  %8 = alloca double, align 8
  %9 = alloca double, align 8
  %10 = alloca double, align 8
  %11 = alloca double, align 8
  %12 = alloca double, align 8
  %13 = alloca double, align 8
  %14 = alloca double, align 8
  %15 = alloca double, align 8
  %16 = alloca double, align 8
  %17 = alloca double, align 8
  %18 = getelementptr inbounds nuw { double, double }, ptr %6, i32 0, i32 0
  store double %0, ptr %18, align 8
  %19 = getelementptr inbounds nuw { double, double }, ptr %6, i32 0, i32 1
  store double %1, ptr %19, align 8
  %20 = getelementptr inbounds nuw { double, double }, ptr %7, i32 0, i32 0
  store double %2, ptr %20, align 8
  %21 = getelementptr inbounds nuw { double, double }, ptr %7, i32 0, i32 1
  store double %3, ptr %21, align 8
  call void @llvm.lifetime.start.p0(i64 8, ptr %8) #9
  %22 = getelementptr inbounds nuw %struct.Py_complex, ptr %7, i32 0, i32 0
  %23 = load double, ptr %22, align 8, !tbaa !4
  %24 = fcmp olt double %23, 0.000000e+00
  br i1 %24, label %25, label %29

25:                                               ; preds = %4
  %26 = getelementptr inbounds nuw %struct.Py_complex, ptr %7, i32 0, i32 0
  %27 = load double, ptr %26, align 8, !tbaa !4
  %28 = fneg double %27
  br label %32

29:                                               ; preds = %4
  %30 = getelementptr inbounds nuw %struct.Py_complex, ptr %7, i32 0, i32 0
  %31 = load double, ptr %30, align 8, !tbaa !4
  br label %32

32:                                               ; preds = %29, %25
  %33 = phi double [ %28, %25 ], [ %31, %29 ]
  store double %33, ptr %8, align 8, !tbaa !10
  call void @llvm.lifetime.start.p0(i64 8, ptr %9) #9
  %34 = getelementptr inbounds nuw %struct.Py_complex, ptr %7, i32 0, i32 1
  %35 = load double, ptr %34, align 8, !tbaa !9
  %36 = fcmp olt double %35, 0.000000e+00
  br i1 %36, label %37, label %41

37:                                               ; preds = %32
  %38 = getelementptr inbounds nuw %struct.Py_complex, ptr %7, i32 0, i32 1
  %39 = load double, ptr %38, align 8, !tbaa !9
  %40 = fneg double %39
  br label %44

41:                                               ; preds = %32
  %42 = getelementptr inbounds nuw %struct.Py_complex, ptr %7, i32 0, i32 1
  %43 = load double, ptr %42, align 8, !tbaa !9
  br label %44

44:                                               ; preds = %41, %37
  %45 = phi double [ %40, %37 ], [ %43, %41 ]
  store double %45, ptr %9, align 8, !tbaa !10
  %46 = load double, ptr %8, align 8, !tbaa !10
  %47 = load double, ptr %9, align 8, !tbaa !10
  %48 = fcmp oge double %46, %47
  br i1 %48, label %49, label %88

49:                                               ; preds = %44
  %50 = load double, ptr %8, align 8, !tbaa !10
  %51 = fcmp oeq double %50, 0.000000e+00
  br i1 %51, label %52, label %56

52:                                               ; preds = %49
  %53 = call ptr @__errno_location() #11
  store i32 33, ptr %53, align 4, !tbaa !12
  %54 = getelementptr inbounds nuw %struct.Py_complex, ptr %5, i32 0, i32 1
  store double 0.000000e+00, ptr %54, align 8, !tbaa !9
  %55 = getelementptr inbounds nuw %struct.Py_complex, ptr %5, i32 0, i32 0
  store double 0.000000e+00, ptr %55, align 8, !tbaa !4
  br label %87

56:                                               ; preds = %49
  call void @llvm.lifetime.start.p0(i64 8, ptr %10) #9
  %57 = getelementptr inbounds nuw %struct.Py_complex, ptr %7, i32 0, i32 1
  %58 = load double, ptr %57, align 8, !tbaa !9
  %59 = getelementptr inbounds nuw %struct.Py_complex, ptr %7, i32 0, i32 0
  %60 = load double, ptr %59, align 8, !tbaa !4
  %61 = fdiv double %58, %60
  store double %61, ptr %10, align 8, !tbaa !10
  call void @llvm.lifetime.start.p0(i64 8, ptr %11) #9
  %62 = getelementptr inbounds nuw %struct.Py_complex, ptr %7, i32 0, i32 0
  %63 = load double, ptr %62, align 8, !tbaa !4
  %64 = getelementptr inbounds nuw %struct.Py_complex, ptr %7, i32 0, i32 1
  %65 = load double, ptr %64, align 8, !tbaa !9
  %66 = load double, ptr %10, align 8, !tbaa !10
  %67 = call double @llvm.fmuladd.f64(double %65, double %66, double %63)
  store double %67, ptr %11, align 8, !tbaa !10
  %68 = getelementptr inbounds nuw %struct.Py_complex, ptr %6, i32 0, i32 0
  %69 = load double, ptr %68, align 8, !tbaa !4
  %70 = getelementptr inbounds nuw %struct.Py_complex, ptr %6, i32 0, i32 1
  %71 = load double, ptr %70, align 8, !tbaa !9
  %72 = load double, ptr %10, align 8, !tbaa !10
  %73 = call double @llvm.fmuladd.f64(double %71, double %72, double %69)
  %74 = load double, ptr %11, align 8, !tbaa !10
  %75 = fdiv double %73, %74
  %76 = getelementptr inbounds nuw %struct.Py_complex, ptr %5, i32 0, i32 0
  store double %75, ptr %76, align 8, !tbaa !4
  %77 = getelementptr inbounds nuw %struct.Py_complex, ptr %6, i32 0, i32 1
  %78 = load double, ptr %77, align 8, !tbaa !9
  %79 = getelementptr inbounds nuw %struct.Py_complex, ptr %6, i32 0, i32 0
  %80 = load double, ptr %79, align 8, !tbaa !4
  %81 = load double, ptr %10, align 8, !tbaa !10
  %82 = fneg double %80
  %83 = call double @llvm.fmuladd.f64(double %82, double %81, double %78)
  %84 = load double, ptr %11, align 8, !tbaa !10
  %85 = fdiv double %83, %84
  %86 = getelementptr inbounds nuw %struct.Py_complex, ptr %5, i32 0, i32 1
  store double %85, ptr %86, align 8, !tbaa !9
  call void @llvm.lifetime.end.p0(i64 8, ptr %11) #9
  call void @llvm.lifetime.end.p0(i64 8, ptr %10) #9
  br label %87

87:                                               ; preds = %56, %52
  br label %127

88:                                               ; preds = %44
  %89 = load double, ptr %9, align 8, !tbaa !10
  %90 = load double, ptr %8, align 8, !tbaa !10
  %91 = fcmp oge double %89, %90
  br i1 %91, label %92, label %123

92:                                               ; preds = %88
  call void @llvm.lifetime.start.p0(i64 8, ptr %12) #9
  %93 = getelementptr inbounds nuw %struct.Py_complex, ptr %7, i32 0, i32 0
  %94 = load double, ptr %93, align 8, !tbaa !4
  %95 = getelementptr inbounds nuw %struct.Py_complex, ptr %7, i32 0, i32 1
  %96 = load double, ptr %95, align 8, !tbaa !9
  %97 = fdiv double %94, %96
  store double %97, ptr %12, align 8, !tbaa !10
  call void @llvm.lifetime.start.p0(i64 8, ptr %13) #9
  %98 = getelementptr inbounds nuw %struct.Py_complex, ptr %7, i32 0, i32 0
  %99 = load double, ptr %98, align 8, !tbaa !4
  %100 = load double, ptr %12, align 8, !tbaa !10
  %101 = getelementptr inbounds nuw %struct.Py_complex, ptr %7, i32 0, i32 1
  %102 = load double, ptr %101, align 8, !tbaa !9
  %103 = call double @llvm.fmuladd.f64(double %99, double %100, double %102)
  store double %103, ptr %13, align 8, !tbaa !10
  %104 = getelementptr inbounds nuw %struct.Py_complex, ptr %6, i32 0, i32 0
  %105 = load double, ptr %104, align 8, !tbaa !4
  %106 = load double, ptr %12, align 8, !tbaa !10
  %107 = getelementptr inbounds nuw %struct.Py_complex, ptr %6, i32 0, i32 1
  %108 = load double, ptr %107, align 8, !tbaa !9
  %109 = call double @llvm.fmuladd.f64(double %105, double %106, double %108)
  %110 = load double, ptr %13, align 8, !tbaa !10
  %111 = fdiv double %109, %110
  %112 = getelementptr inbounds nuw %struct.Py_complex, ptr %5, i32 0, i32 0
  store double %111, ptr %112, align 8, !tbaa !4
  %113 = getelementptr inbounds nuw %struct.Py_complex, ptr %6, i32 0, i32 1
  %114 = load double, ptr %113, align 8, !tbaa !9
  %115 = load double, ptr %12, align 8, !tbaa !10
  %116 = getelementptr inbounds nuw %struct.Py_complex, ptr %6, i32 0, i32 0
  %117 = load double, ptr %116, align 8, !tbaa !4
  %118 = fneg double %117
  %119 = call double @llvm.fmuladd.f64(double %114, double %115, double %118)
  %120 = load double, ptr %13, align 8, !tbaa !10
  %121 = fdiv double %119, %120
  %122 = getelementptr inbounds nuw %struct.Py_complex, ptr %5, i32 0, i32 1
  store double %121, ptr %122, align 8, !tbaa !9
  call void @llvm.lifetime.end.p0(i64 8, ptr %13) #9
  call void @llvm.lifetime.end.p0(i64 8, ptr %12) #9
  br label %126

123:                                              ; preds = %88
  %124 = getelementptr inbounds nuw %struct.Py_complex, ptr %5, i32 0, i32 1
  store double 0x7FF8000000000000, ptr %124, align 8, !tbaa !9
  %125 = getelementptr inbounds nuw %struct.Py_complex, ptr %5, i32 0, i32 0
  store double 0x7FF8000000000000, ptr %125, align 8, !tbaa !4
  br label %126

126:                                              ; preds = %123, %92
  br label %127

127:                                              ; preds = %126, %87
  %128 = getelementptr inbounds nuw %struct.Py_complex, ptr %5, i32 0, i32 0
  %129 = load double, ptr %128, align 8, !tbaa !4
  %130 = call i1 @llvm.is.fpclass.f64(double %129, i32 3)
  br i1 %130, label %131, label %287

131:                                              ; preds = %127
  %132 = getelementptr inbounds nuw %struct.Py_complex, ptr %5, i32 0, i32 1
  %133 = load double, ptr %132, align 8, !tbaa !9
  %134 = call i1 @llvm.is.fpclass.f64(double %133, i32 3)
  br i1 %134, label %135, label %287

135:                                              ; preds = %131
  %136 = getelementptr inbounds nuw %struct.Py_complex, ptr %6, i32 0, i32 0
  %137 = load double, ptr %136, align 8, !tbaa !4
  %138 = call double @llvm.fabs.f64(double %137) #10
  %139 = fcmp oeq double %138, 0x7FF0000000000000
  %140 = bitcast double %137 to i64
  %141 = icmp slt i64 %140, 0
  %142 = select i1 %141, i32 -1, i32 1
  %143 = select i1 %139, i32 %142, i32 0
  %144 = icmp ne i32 %143, 0
  br i1 %144, label %155, label %145

145:                                              ; preds = %135
  %146 = getelementptr inbounds nuw %struct.Py_complex, ptr %6, i32 0, i32 1
  %147 = load double, ptr %146, align 8, !tbaa !9
  %148 = call double @llvm.fabs.f64(double %147) #10
  %149 = fcmp oeq double %148, 0x7FF0000000000000
  %150 = bitcast double %147 to i64
  %151 = icmp slt i64 %150, 0
  %152 = select i1 %151, i32 -1, i32 1
  %153 = select i1 %149, i32 %152, i32 0
  %154 = icmp ne i32 %153, 0
  br i1 %154, label %155, label %211

155:                                              ; preds = %145, %135
  %156 = getelementptr inbounds nuw %struct.Py_complex, ptr %7, i32 0, i32 0
  %157 = load double, ptr %156, align 8, !tbaa !4
  %158 = call i1 @llvm.is.fpclass.f64(double %157, i32 504)
  br i1 %158, label %159, label %211

159:                                              ; preds = %155
  %160 = getelementptr inbounds nuw %struct.Py_complex, ptr %7, i32 0, i32 1
  %161 = load double, ptr %160, align 8, !tbaa !9
  %162 = call i1 @llvm.is.fpclass.f64(double %161, i32 504)
  br i1 %162, label %163, label %211

163:                                              ; preds = %159
  call void @llvm.lifetime.start.p0(i64 8, ptr %14) #9
  %164 = getelementptr inbounds nuw %struct.Py_complex, ptr %6, i32 0, i32 0
  %165 = load double, ptr %164, align 8, !tbaa !4
  %166 = call double @llvm.fabs.f64(double %165) #10
  %167 = fcmp oeq double %166, 0x7FF0000000000000
  %168 = bitcast double %165 to i64
  %169 = icmp slt i64 %168, 0
  %170 = select i1 %169, i32 -1, i32 1
  %171 = select i1 %167, i32 %170, i32 0
  %172 = icmp ne i32 %171, 0
  %173 = select i1 %172, double 1.000000e+00, double 0.000000e+00
  %174 = getelementptr inbounds nuw %struct.Py_complex, ptr %6, i32 0, i32 0
  %175 = load double, ptr %174, align 8, !tbaa !4
  %176 = call double @llvm.copysign.f64(double %173, double %175)
  store double %176, ptr %14, align 8, !tbaa !10
  call void @llvm.lifetime.start.p0(i64 8, ptr %15) #9
  %177 = getelementptr inbounds nuw %struct.Py_complex, ptr %6, i32 0, i32 1
  %178 = load double, ptr %177, align 8, !tbaa !9
  %179 = call double @llvm.fabs.f64(double %178) #10
  %180 = fcmp oeq double %179, 0x7FF0000000000000
  %181 = bitcast double %178 to i64
  %182 = icmp slt i64 %181, 0
  %183 = select i1 %182, i32 -1, i32 1
  %184 = select i1 %180, i32 %183, i32 0
  %185 = icmp ne i32 %184, 0
  %186 = select i1 %185, double 1.000000e+00, double 0.000000e+00
  %187 = getelementptr inbounds nuw %struct.Py_complex, ptr %6, i32 0, i32 1
  %188 = load double, ptr %187, align 8, !tbaa !9
  %189 = call double @llvm.copysign.f64(double %186, double %188)
  store double %189, ptr %15, align 8, !tbaa !10
  %190 = load double, ptr %14, align 8, !tbaa !10
  %191 = getelementptr inbounds nuw %struct.Py_complex, ptr %7, i32 0, i32 0
  %192 = load double, ptr %191, align 8, !tbaa !4
  %193 = load double, ptr %15, align 8, !tbaa !10
  %194 = getelementptr inbounds nuw %struct.Py_complex, ptr %7, i32 0, i32 1
  %195 = load double, ptr %194, align 8, !tbaa !9
  %196 = fmul double %193, %195
  %197 = call double @llvm.fmuladd.f64(double %190, double %192, double %196)
  %198 = fmul double 0x7FF0000000000000, %197
  %199 = getelementptr inbounds nuw %struct.Py_complex, ptr %5, i32 0, i32 0
  store double %198, ptr %199, align 8, !tbaa !4
  %200 = load double, ptr %15, align 8, !tbaa !10
  %201 = getelementptr inbounds nuw %struct.Py_complex, ptr %7, i32 0, i32 0
  %202 = load double, ptr %201, align 8, !tbaa !4
  %203 = load double, ptr %14, align 8, !tbaa !10
  %204 = getelementptr inbounds nuw %struct.Py_complex, ptr %7, i32 0, i32 1
  %205 = load double, ptr %204, align 8, !tbaa !9
  %206 = fmul double %203, %205
  %207 = fneg double %206
  %208 = call double @llvm.fmuladd.f64(double %200, double %202, double %207)
  %209 = fmul double 0x7FF0000000000000, %208
  %210 = getelementptr inbounds nuw %struct.Py_complex, ptr %5, i32 0, i32 1
  store double %209, ptr %210, align 8, !tbaa !9
  call void @llvm.lifetime.end.p0(i64 8, ptr %15) #9
  call void @llvm.lifetime.end.p0(i64 8, ptr %14) #9
  br label %286

211:                                              ; preds = %159, %155, %145
  %212 = load double, ptr %8, align 8, !tbaa !10
  %213 = call double @llvm.fabs.f64(double %212) #10
  %214 = fcmp oeq double %213, 0x7FF0000000000000
  %215 = bitcast double %212 to i64
  %216 = icmp slt i64 %215, 0
  %217 = select i1 %216, i32 -1, i32 1
  %218 = select i1 %214, i32 %217, i32 0
  %219 = icmp ne i32 %218, 0
  br i1 %219, label %229, label %220

220:                                              ; preds = %211
  %221 = load double, ptr %9, align 8, !tbaa !10
  %222 = call double @llvm.fabs.f64(double %221) #10
  %223 = fcmp oeq double %222, 0x7FF0000000000000
  %224 = bitcast double %221 to i64
  %225 = icmp slt i64 %224, 0
  %226 = select i1 %225, i32 -1, i32 1
  %227 = select i1 %223, i32 %226, i32 0
  %228 = icmp ne i32 %227, 0
  br i1 %228, label %229, label %285

229:                                              ; preds = %220, %211
  %230 = getelementptr inbounds nuw %struct.Py_complex, ptr %6, i32 0, i32 0
  %231 = load double, ptr %230, align 8, !tbaa !4
  %232 = call i1 @llvm.is.fpclass.f64(double %231, i32 504)
  br i1 %232, label %233, label %285

233:                                              ; preds = %229
  %234 = getelementptr inbounds nuw %struct.Py_complex, ptr %6, i32 0, i32 1
  %235 = load double, ptr %234, align 8, !tbaa !9
  %236 = call i1 @llvm.is.fpclass.f64(double %235, i32 504)
  br i1 %236, label %237, label %285

237:                                              ; preds = %233
  call void @llvm.lifetime.start.p0(i64 8, ptr %16) #9
  %238 = getelementptr inbounds nuw %struct.Py_complex, ptr %7, i32 0, i32 0
  %239 = load double, ptr %238, align 8, !tbaa !4
  %240 = call double @llvm.fabs.f64(double %239) #10
  %241 = fcmp oeq double %240, 0x7FF0000000000000
  %242 = bitcast double %239 to i64
  %243 = icmp slt i64 %242, 0
  %244 = select i1 %243, i32 -1, i32 1
  %245 = select i1 %241, i32 %244, i32 0
  %246 = icmp ne i32 %245, 0
  %247 = select i1 %246, double 1.000000e+00, double 0.000000e+00
  %248 = getelementptr inbounds nuw %struct.Py_complex, ptr %7, i32 0, i32 0
  %249 = load double, ptr %248, align 8, !tbaa !4
  %250 = call double @llvm.copysign.f64(double %247, double %249)
  store double %250, ptr %16, align 8, !tbaa !10
  call void @llvm.lifetime.start.p0(i64 8, ptr %17) #9
  %251 = getelementptr inbounds nuw %struct.Py_complex, ptr %7, i32 0, i32 1
  %252 = load double, ptr %251, align 8, !tbaa !9
  %253 = call double @llvm.fabs.f64(double %252) #10
  %254 = fcmp oeq double %253, 0x7FF0000000000000
  %255 = bitcast double %252 to i64
  %256 = icmp slt i64 %255, 0
  %257 = select i1 %256, i32 -1, i32 1
  %258 = select i1 %254, i32 %257, i32 0
  %259 = icmp ne i32 %258, 0
  %260 = select i1 %259, double 1.000000e+00, double 0.000000e+00
  %261 = getelementptr inbounds nuw %struct.Py_complex, ptr %7, i32 0, i32 1
  %262 = load double, ptr %261, align 8, !tbaa !9
  %263 = call double @llvm.copysign.f64(double %260, double %262)
  store double %263, ptr %17, align 8, !tbaa !10
  %264 = getelementptr inbounds nuw %struct.Py_complex, ptr %6, i32 0, i32 0
  %265 = load double, ptr %264, align 8, !tbaa !4
  %266 = load double, ptr %16, align 8, !tbaa !10
  %267 = getelementptr inbounds nuw %struct.Py_complex, ptr %6, i32 0, i32 1
  %268 = load double, ptr %267, align 8, !tbaa !9
  %269 = load double, ptr %17, align 8, !tbaa !10
  %270 = fmul double %268, %269
  %271 = call double @llvm.fmuladd.f64(double %265, double %266, double %270)
  %272 = fmul double 0.000000e+00, %271
  %273 = getelementptr inbounds nuw %struct.Py_complex, ptr %5, i32 0, i32 0
  store double %272, ptr %273, align 8, !tbaa !4
  %274 = getelementptr inbounds nuw %struct.Py_complex, ptr %6, i32 0, i32 1
  %275 = load double, ptr %274, align 8, !tbaa !9
  %276 = load double, ptr %16, align 8, !tbaa !10
  %277 = getelementptr inbounds nuw %struct.Py_complex, ptr %6, i32 0, i32 0
  %278 = load double, ptr %277, align 8, !tbaa !4
  %279 = load double, ptr %17, align 8, !tbaa !10
  %280 = fmul double %278, %279
  %281 = fneg double %280
  %282 = call double @llvm.fmuladd.f64(double %275, double %276, double %281)
  %283 = fmul double 0.000000e+00, %282
  %284 = getelementptr inbounds nuw %struct.Py_complex, ptr %5, i32 0, i32 1
  store double %283, ptr %284, align 8, !tbaa !9
  call void @llvm.lifetime.end.p0(i64 8, ptr %17) #9
  call void @llvm.lifetime.end.p0(i64 8, ptr %16) #9
  br label %285

285:                                              ; preds = %237, %233, %229, %220
  br label %286

286:                                              ; preds = %285, %163
  br label %287

287:                                              ; preds = %286, %131, %127
  call void @llvm.lifetime.end.p0(i64 8, ptr %9) #9
  call void @llvm.lifetime.end.p0(i64 8, ptr %8) #9
  %288 = load { double, double }, ptr %5, align 8
  ret { double, double } %288
}