; Function Attrs: mustprogress nofree nosync nounwind willreturn memory(write, inaccessiblemem: none) uwtable
define dso_local { double, double } @_Py_c_quot(double %0, double %1, double %2, double %3) local_unnamed_addr #4 {
  %5 = fcmp olt double %2, 0.000000e+00
  %6 = fneg double %2
  %7 = select i1 %5, double %6, double %2
  %8 = fcmp olt double %3, 0.000000e+00
  %9 = fneg double %3
  %10 = select i1 %8, double %9, double %3
  %11 = fcmp ult double %7, %10
  br i1 %11, label %23, label %12

12:                                               ; preds = %4
  %13 = fcmp oeq double %2, 0.000000e+00
  br i1 %13, label %.thread, label %15

.thread:                                          ; preds = %12
  %14 = tail call ptr @__errno_location() #15
  store i32 33, ptr %14, align 4, !tbaa !4
  br label %73

15:                                               ; preds = %12
  %16 = fdiv double %3, %2
  %17 = tail call double @llvm.fmuladd.f64(double %3, double %16, double %2)
  %18 = tail call double @llvm.fmuladd.f64(double %1, double %16, double %0)
  %19 = fdiv double %18, %17
  %20 = fneg double %0
  %21 = tail call double @llvm.fmuladd.f64(double %20, double %16, double %1)
  %22 = fdiv double %21, %17
  br label %33

23:                                               ; preds = %4
  %24 = fcmp ult double %10, %7
  br i1 %24, label %33, label %25

25:                                               ; preds = %23
  %26 = fdiv double %2, %3
  %27 = tail call double @llvm.fmuladd.f64(double %2, double %26, double %3)
  %28 = tail call double @llvm.fmuladd.f64(double %0, double %26, double %1)
  %29 = fdiv double %28, %27
  %30 = fneg double %0
  %31 = tail call double @llvm.fmuladd.f64(double %1, double %26, double %30)
  %32 = fdiv double %31, %27
  br label %33

33:                                               ; preds = %23, %25, %15
  %.sroa.066.0 = phi double [ %19, %15 ], [ %29, %25 ], [ 0x7FF8000000000000, %23 ]
  %.sroa.8.0 = phi double [ %22, %15 ], [ %32, %25 ], [ 0x7FF8000000000000, %23 ]
  %34 = fcmp uno double %.sroa.066.0, 0.000000e+00
  %35 = fcmp uno double %.sroa.8.0, 0.000000e+00
  %or.cond = select i1 %34, i1 %35, i1 false
  br i1 %or.cond, label %36, label %73

36:                                               ; preds = %33
  %37 = tail call double @llvm.fabs.f64(double %0)
  %38 = fcmp une double %37, 0x7FF0000000000000
  %39 = tail call double @llvm.fabs.f64(double %1)
  %40 = fcmp une double %39, 0x7FF0000000000000
  %or.cond69.not84 = select i1 %38, i1 %40, i1 false
  %41 = tail call double @llvm.fabs.f64(double %2)
  %42 = fcmp ueq double %41, 0x7FF0000000000000
  %or.cond71 = or i1 %or.cond69.not84, %42
  %43 = tail call double @llvm.fabs.f64(double %3)
  %44 = fcmp ueq double %43, 0x7FF0000000000000
  %or.cond73 = or i1 %or.cond71, %44
  br i1 %or.cond73, label %56, label %45

45:                                               ; preds = %36
  %46 = select i1 %38, double 0.000000e+00, double 1.000000e+00
  %47 = tail call double @llvm.copysign.f64(double %46, double %0)
  %48 = select i1 %40, double 0.000000e+00, double 1.000000e+00
  %49 = tail call double @llvm.copysign.f64(double %48, double %1)
  %50 = fmul double %3, %49
  %51 = tail call double @llvm.fmuladd.f64(double %47, double %2, double %50)
  %52 = fmul double %51, 0x7FF0000000000000
  %53 = fmul double %47, %9
  %54 = tail call double @llvm.fmuladd.f64(double %49, double %2, double %53)
  %55 = fmul double %54, 0x7FF0000000000000
  br label %73

56:                                               ; preds = %36
  %57 = fcmp une double %41, 0x7FF0000000000000
  %58 = fcmp une double %43, 0x7FF0000000000000
  %or.cond75.not86 = and i1 %57, %58
  %59 = fcmp ueq double %37, 0x7FF0000000000000
  %or.cond77 = or i1 %59, %or.cond75.not86
  %60 = fcmp ueq double %39, 0x7FF0000000000000
  %or.cond79 = select i1 %or.cond77, i1 true, i1 %60
  br i1 %or.cond79, label %73, label %61

61:                                               ; preds = %56
  %62 = select i1 %57, double 0.000000e+00, double 1.000000e+00
  %63 = tail call double @llvm.copysign.f64(double %62, double %2)
  %64 = select i1 %58, double 0.000000e+00, double 1.000000e+00
  %65 = tail call double @llvm.copysign.f64(double %64, double %3)
  %66 = fmul double %1, %65
  %67 = tail call double @llvm.fmuladd.f64(double %0, double %63, double %66)
  %68 = fmul double %67, 0.000000e+00
  %69 = fneg double %65
  %70 = fmul double %0, %69
  %71 = tail call double @llvm.fmuladd.f64(double %1, double %63, double %70)
  %72 = fmul double %71, 0.000000e+00
  br label %73

73:                                               ; preds = %.thread, %56, %45, %61, %33
  %.sroa.066.1 = phi double [ %52, %45 ], [ %68, %61 ], [ %.sroa.066.0, %33 ], [ %.sroa.066.0, %56 ], [ 0.000000e+00, %.thread ]
  %.sroa.8.1 = phi double [ %55, %45 ], [ %72, %61 ], [ %.sroa.8.0, %33 ], [ %.sroa.8.0, %56 ], [ 0.000000e+00, %.thread ]
  %.fca.0.insert = insertvalue { double, double } poison, double %.sroa.066.1, 0
  %.fca.1.insert = insertvalue { double, double } %.fca.0.insert, double %.sroa.8.1, 1
  ret { double, double } %.fca.1.insert
}